; Function Attrs: nounwind sspstrong uwtable
define internal noundef i64 @one_iter_i(i64 %0, i64 noundef %1, i32 noundef %2, ptr noundef %3, i64 %4) #0 {
  %6 = tail call i64 @rb_yield_values2(i32 noundef %2, ptr noundef %3) #14
  %7 = and i64 %6, -5
  %.not.i = icmp eq i64 %7, 0
  br i1 %.not.i, label %enum_one_func.exit, label %8

8:                                                ; preds = %5
  %9 = inttoptr i64 %1 to ptr
  %10 = getelementptr inbounds nuw i8, ptr %9, i64 16
  %11 = load i64, ptr %10, align 8, !tbaa !60
  switch i64 %11, label %enum_one_func.exit [
    i64 36, label %12
    i64 20, label %13
  ]

12:                                               ; preds = %8
  store i64 20, ptr %10, align 8, !tbaa !7
  br label %enum_one_func.exit

13:                                               ; preds = %8
  store i64 0, ptr %10, align 8, !tbaa !7
  tail call void @rb_iter_break() #15
  unreachable

enum_one_func.exit:                               ; preds = %5, %8, %12
  ret i64 4
}